target datalayout = "e-m:e-p270:32:32-p271:32:32-p272:64:64-i64:64-i128:128-f80:128-n8:16:32:64-S128"
target triple = "x86_64-pc-linux-gnu"

@.str = private unnamed_addr constant [11 x i8] c"       NaN\00", align 1
@.str.1 = private unnamed_addr constant [11 x i8] c"0.000  B/s\00", align 1
@.str.2 = private unnamed_addr constant [7 x i8] c"%10.4e\00", align 1
@.str.3 = private unnamed_addr constant [7 x i8] c"%05.4f\00", align 1
@.str.4 = private unnamed_addr constant [6 x i8] c"  B/s\00", align 1
@.str.5 = private unnamed_addr constant [6 x i8] c" kB/s\00", align 1
@.str.6 = private unnamed_addr constant [6 x i8] c" MB/s\00", align 1
@.str.7 = private unnamed_addr constant [6 x i8] c" GB/s\00", align 1
@.str.8 = private unnamed_addr constant [6 x i8] c" TB/s\00", align 1
@.str.9 = private unnamed_addr constant [6 x i8] c" PB/s\00", align 1
@.str.10 = private unnamed_addr constant [7 x i8] c"%10.3e\00", align 1

; Function Attrs: nounwind uwtable
define void @H5_bandwidth(ptr noundef %0, i64 noundef %1, double noundef %2, double noundef %3) #0 {
  %5 = alloca ptr, align 8
  %6 = alloca i64, align 8
  %7 = alloca double, align 8
  %8 = alloca double, align 8
  %9 = alloca double, align 8
  store ptr %0, ptr %5, align 8, !tbaa !3
  store i64 %1, ptr %6, align 8, !tbaa !8
  store double %2, ptr %7, align 8, !tbaa !10
  store double %3, ptr %8, align 8, !tbaa !10
  call void @llvm.lifetime.start.p0(i64 8, ptr %9) #8
  %10 = load double, ptr %8, align 8, !tbaa !10
  %11 = fcmp ole double %10, 0.000000e+00
  br i1 %11, label %12, label %15

12:                                               ; preds = %4
  %13 = load ptr, ptr %5, align 8, !tbaa !3
  %14 = call ptr @strcpy(ptr noundef %13, ptr noundef @.str) #8
  br label %127

15:                                               ; preds = %4
  %16 = load double, ptr %7, align 8, !tbaa !10
  %17 = load double, ptr %8, align 8, !tbaa !10
  %18 = fdiv double %16, %17
  store double %18, ptr %9, align 8, !tbaa !10
  %19 = load double, ptr %9, align 8, !tbaa !10
  %20 = fsub double %19, 0.000000e+00
  %21 = call double @llvm.fabs.f64(double %20)
  %22 = fcmp olt double %21, 0x3CB0000000000000
  br i1 %22, label %23, label %26

23:                                               ; preds = %15
  %24 = load ptr, ptr %5, align 8, !tbaa !3
  %25 = call ptr @strcpy(ptr noundef %24, ptr noundef @.str.1) #8
  br label %126

26:                                               ; preds = %15
  %27 = load double, ptr %9, align 8, !tbaa !10
  %28 = fcmp olt double %27, 1.000000e+00
  br i1 %28, label %29, label %34

29:                                               ; preds = %26
  %30 = load ptr, ptr %5, align 8, !tbaa !3
  %31 = load i64, ptr %6, align 8, !tbaa !8
  %32 = load double, ptr %9, align 8, !tbaa !10
  %33 = call i32 (ptr, i64, ptr, ...) @snprintf(ptr noundef %30, i64 noundef %31, ptr noundef @.str.2, double noundef %32) #8
  br label %125

34:                                               ; preds = %26
  %35 = load double, ptr %9, align 8, !tbaa !10
  %36 = fcmp olt double %35, 1.024000e+03
  br i1 %36, label %37, label %45

37:                                               ; preds = %34
  %38 = load ptr, ptr %5, align 8, !tbaa !3
  %39 = load i64, ptr %6, align 8, !tbaa !8
  %40 = load double, ptr %9, align 8, !tbaa !10
  %41 = call i32 (ptr, i64, ptr, ...) @snprintf(ptr noundef %38, i64 noundef %39, ptr noundef @.str.3, double noundef %40) #8
  %42 = load ptr, ptr %5, align 8, !tbaa !3
  %43 = getelementptr inbounds i8, ptr %42, i64 5
  %44 = call ptr @strcpy(ptr noundef %43, ptr noundef @.str.4) #8
  br label %124

45:                                               ; preds = %34
  %46 = load double, ptr %9, align 8, !tbaa !10
  %47 = fcmp olt double %46, 0x4130000000000000
  br i1 %47, label %48, label %57

48:                                               ; preds = %45
  %49 = load ptr, ptr %5, align 8, !tbaa !3
  %50 = load i64, ptr %6, align 8, !tbaa !8
  %51 = load double, ptr %9, align 8, !tbaa !10
  %52 = fdiv double %51, 1.024000e+03
  %53 = call i32 (ptr, i64, ptr, ...) @snprintf(ptr noundef %49, i64 noundef %50, ptr noundef @.str.3, double noundef %52) #8
  %54 = load ptr, ptr %5, align 8, !tbaa !3
  %55 = getelementptr inbounds i8, ptr %54, i64 5
  %56 = call ptr @strcpy(ptr noundef %55, ptr noundef @.str.5) #8
  br label %123

57:                                               ; preds = %45
  %58 = load double, ptr %9, align 8, !tbaa !10
  %59 = fcmp olt double %58, 0x41D0000000000000
  br i1 %59, label %60, label %69

60:                                               ; preds = %57
  %61 = load ptr, ptr %5, align 8, !tbaa !3
  %62 = load i64, ptr %6, align 8, !tbaa !8
  %63 = load double, ptr %9, align 8, !tbaa !10
  %64 = fdiv double %63, 0x4130000000000000
  %65 = call i32 (ptr, i64, ptr, ...) @snprintf(ptr noundef %61, i64 noundef %62, ptr noundef @.str.3, double noundef %64) #8
  %66 = load ptr, ptr %5, align 8, !tbaa !3
  %67 = getelementptr inbounds i8, ptr %66, i64 5
  %68 = call ptr @strcpy(ptr noundef %67, ptr noundef @.str.6) #8
  br label %122

69:                                               ; preds = %57
  %70 = load double, ptr %9, align 8, !tbaa !10
  %71 = fcmp olt double %70, 0x4270000000000000
  br i1 %71, label %72, label %81

72:                                               ; preds = %69
  %73 = load ptr, ptr %5, align 8, !tbaa !3
  %74 = load i64, ptr %6, align 8, !tbaa !8
  %75 = load double, ptr %9, align 8, !tbaa !10
  %76 = fdiv double %75, 0x41D0000000000000
  %77 = call i32 (ptr, i64, ptr, ...) @snprintf(ptr noundef %73, i64 noundef %74, ptr noundef @.str.3, double noundef %76) #8
  %78 = load ptr, ptr %5, align 8, !tbaa !3
  %79 = getelementptr inbounds i8, ptr %78, i64 5
  %80 = call ptr @strcpy(ptr noundef %79, ptr noundef @.str.7) #8
  br label %121

81:                                               ; preds = %69
  %82 = load double, ptr %9, align 8, !tbaa !10
  %83 = fcmp olt double %82, 0x4310000000000000
  br i1 %83, label %84, label %93

84:                                               ; preds = %81
  %85 = load ptr, ptr %5, align 8, !tbaa !3
  %86 = load i64, ptr %6, align 8, !tbaa !8
  %87 = load double, ptr %9, align 8, !tbaa !10
  %88 = fdiv double %87, 0x4270000000000000
  %89 = call i32 (ptr, i64, ptr, ...) @snprintf(ptr noundef %85, i64 noundef %86, ptr noundef @.str.3, double noundef %88) #8
  %90 = load ptr, ptr %5, align 8, !tbaa !3
  %91 = getelementptr inbounds i8, ptr %90, i64 5
  %92 = call ptr @strcpy(ptr noundef %91, ptr noundef @.str.8) #8
  br label %120

93:                                               ; preds = %81
  %94 = load double, ptr %9, align 8, !tbaa !10
  %95 = fcmp olt double %94, 0x43B0000000000000
  br i1 %95, label %96, label %105

96:                                               ; preds = %93
  %97 = load ptr, ptr %5, align 8, !tbaa !3
  %98 = load i64, ptr %6, align 8, !tbaa !8
  %99 = load double, ptr %9, align 8, !tbaa !10
  %100 = fdiv double %99, 0x4310000000000000
  %101 = call i32 (ptr, i64, ptr, ...) @snprintf(ptr noundef %97, i64 noundef %98, ptr noundef @.str.3, double noundef %100) #8
  %102 = load ptr, ptr %5, align 8, !tbaa !3
  %103 = getelementptr inbounds i8, ptr %102, i64 5
  %104 = call ptr @strcpy(ptr noundef %103, ptr noundef @.str.9) #8
  br label %119

105:                                              ; preds = %93
  %106 = load ptr, ptr %5, align 8, !tbaa !3
  %107 = load i64, ptr %6, align 8, !tbaa !8
  %108 = load double, ptr %9, align 8, !tbaa !10
  %109 = call i32 (ptr, i64, ptr, ...) @snprintf(ptr noundef %106, i64 noundef %107, ptr noundef @.str.2, double noundef %108) #8
  %110 = load ptr, ptr %5, align 8, !tbaa !3
  %111 = call i64 @strlen(ptr noundef %110) #9
  %112 = icmp ugt i64 %111, 10
  br i1 %112, label %113, label %118

113:                                              ; preds = %105
  %114 = load ptr, ptr %5, align 8, !tbaa !3
  %115 = load i64, ptr %6, align 8, !tbaa !8
  %116 = load double, ptr %9, align 8, !tbaa !10
  %117 = call i32 (ptr, i64, ptr, ...) @snprintf(ptr noundef %114, i64 noundef %115, ptr noundef @.str.10, double noundef %116) #8
  br label %118

118:                                              ; preds = %113, %105
  br label %119

119:                                              ; preds = %118, %96
  br label %120

120:                                              ; preds = %119, %84
  br label %121

121:                                              ; preds = %120, %72
  br label %122

122:                                              ; preds = %121, %60
  br label %123

123:                                              ; preds = %122, %48
  br label %124

124:                                              ; preds = %123, %37
  br label %125

125:                                              ; preds = %124, %29
  br label %126

126:                                              ; preds = %125, %23
  br label %127

127:                                              ; preds = %126, %12
  call void @llvm.lifetime.end.p0(i64 8, ptr %9) #8
  ret void
}