; Function Attrs: nofree nounwind uwtable
define void @H5_bandwidth(ptr noundef captures(none) %0, i64 noundef %1, double noundef %2, double noundef %3) local_unnamed_addr #0 {
  %5 = fcmp ugt double %3, 0.000000e+00
  br i1 %5, label %7, label %6

6:                                                ; preds = %4
  tail call void @llvm.memcpy.p0.p0.i64(ptr noundef nonnull align 1 dereferenceable(11) %0, ptr noundef nonnull align 1 dereferenceable(11) @.str, i64 11, i1 false) #11
  br label %57

7:                                                ; preds = %4
  %8 = fdiv double %2, %3
  %9 = tail call double @llvm.fabs.f64(double %8)
  %10 = fcmp olt double %9, 0x3CB0000000000000
  br i1 %10, label %11, label %12

11:                                               ; preds = %7
  tail call void @llvm.memcpy.p0.p0.i64(ptr noundef nonnull align 1 dereferenceable(11) %0, ptr noundef nonnull align 1 dereferenceable(11) @.str.1, i64 11, i1 false) #11
  br label %57

12:                                               ; preds = %7
  %13 = fcmp olt double %8, 1.000000e+00
  br i1 %13, label %14, label %16

14:                                               ; preds = %12
  %15 = tail call i32 (ptr, i64, ptr, ...) @snprintf(ptr noundef %0, i64 noundef %1, ptr noundef nonnull @.str.2, double noundef %8) #11
  br label %57

16:                                               ; preds = %12
  %17 = fcmp olt double %8, 1.024000e+03
  br i1 %17, label %18, label %21

18:                                               ; preds = %16
  %19 = tail call i32 (ptr, i64, ptr, ...) @snprintf(ptr noundef %0, i64 noundef %1, ptr noundef nonnull @.str.3, double noundef %8) #11
  %20 = getelementptr inbounds nuw i8, ptr %0, i64 5
  tail call void @llvm.memcpy.p0.p0.i64(ptr noundef nonnull align 1 dereferenceable(6) %20, ptr noundef nonnull align 1 dereferenceable(6) @.str.4, i64 6, i1 false) #11
  br label %57

21:                                               ; preds = %16
  %22 = fcmp olt double %8, 0x4130000000000000
  br i1 %22, label %23, label %27

23:                                               ; preds = %21
  %24 = fmul double %8, 0x3F50000000000000
  %25 = tail call i32 (ptr, i64, ptr, ...) @snprintf(ptr noundef %0, i64 noundef %1, ptr noundef nonnull @.str.3, double noundef %24) #11
  %26 = getelementptr inbounds nuw i8, ptr %0, i64 5
  tail call void @llvm.memcpy.p0.p0.i64(ptr noundef nonnull align 1 dereferenceable(6) %26, ptr noundef nonnull align 1 dereferenceable(6) @.str.5, i64 6, i1 false) #11
  br label %57

27:                                               ; preds = %21
  %28 = fcmp olt double %8, 0x41D0000000000000
  br i1 %28, label %29, label %33

29:                                               ; preds = %27
  %30 = fmul double %8, 0x3EB0000000000000
  %31 = tail call i32 (ptr, i64, ptr, ...) @snprintf(ptr noundef %0, i64 noundef %1, ptr noundef nonnull @.str.3, double noundef %30) #11
  %32 = getelementptr inbounds nuw i8, ptr %0, i64 5
  tail call void @llvm.memcpy.p0.p0.i64(ptr noundef nonnull align 1 dereferenceable(6) %32, ptr noundef nonnull align 1 dereferenceable(6) @.str.6, i64 6, i1 false) #11
  br label %57

33:                                               ; preds = %27
  %34 = fcmp olt double %8, 0x4270000000000000
  br i1 %34, label %35, label %39

35:                                               ; preds = %33
  %36 = fmul double %8, 0x3E10000000000000
  %37 = tail call i32 (ptr, i64, ptr, ...) @snprintf(ptr noundef %0, i64 noundef %1, ptr noundef nonnull @.str.3, double noundef %36) #11
  %38 = getelementptr inbounds nuw i8, ptr %0, i64 5
  tail call void @llvm.memcpy.p0.p0.i64(ptr noundef nonnull align 1 dereferenceable(6) %38, ptr noundef nonnull align 1 dereferenceable(6) @.str.7, i64 6, i1 false) #11
  br label %57

39:                                               ; preds = %33
  %40 = fcmp olt double %8, 0x4310000000000000
  br i1 %40, label %41, label %45

41:                                               ; preds = %39
  %42 = fmul double %8, 0x3D70000000000000
  %43 = tail call i32 (ptr, i64, ptr, ...) @snprintf(ptr noundef %0, i64 noundef %1, ptr noundef nonnull @.str.3, double noundef %42) #11
  %44 = getelementptr inbounds nuw i8, ptr %0, i64 5
  tail call void @llvm.memcpy.p0.p0.i64(ptr noundef nonnull align 1 dereferenceable(6) %44, ptr noundef nonnull align 1 dereferenceable(6) @.str.8, i64 6, i1 false) #11
  br label %57

45:                                               ; preds = %39
  %46 = fcmp olt double %8, 0x43B0000000000000
  br i1 %46, label %47, label %51

47:                                               ; preds = %45
  %48 = fmul double %8, 0x3CD0000000000000
  %49 = tail call i32 (ptr, i64, ptr, ...) @snprintf(ptr noundef %0, i64 noundef %1, ptr noundef nonnull @.str.3, double noundef %48) #11
  %50 = getelementptr inbounds nuw i8, ptr %0, i64 5
  tail call void @llvm.memcpy.p0.p0.i64(ptr noundef nonnull align 1 dereferenceable(6) %50, ptr noundef nonnull align 1 dereferenceable(6) @.str.9, i64 6, i1 false) #11
  br label %57

51:                                               ; preds = %45
  %52 = tail call i32 (ptr, i64, ptr, ...) @snprintf(ptr noundef %0, i64 noundef %1, ptr noundef nonnull @.str.2, double noundef %8) #11
  %53 = tail call i64 @strlen(ptr noundef nonnull dereferenceable(1) %0) #12
  %54 = icmp ugt i64 %53, 10
  br i1 %54, label %55, label %57

55:                                               ; preds = %51
  %56 = tail call i32 (ptr, i64, ptr, ...) @snprintf(ptr noundef nonnull %0, i64 noundef %1, ptr noundef nonnull @.str.10, double noundef %8) #11
  br label %57

57:                                               ; preds = %11, %18, %29, %41, %51, %55, %47, %35, %23, %14, %6
  ret void
}